target datalayout = "e-m:e-p270:32:32-p271:32:32-p272:64:64-i64:64-i128:128-f80:128-n8:16:32:64-S128"
target triple = "x86_64-unknown-linux-gnu"

%"class.sat::literal" = type { i32 }
%"class.sat::binspr" = type <{ ptr, %class.scoped_ptr.38, i32, i32, %class.vector.39, i32, i32, %class.svector.14, %class.svector.14, %class.svector.26, %class.svector.26, i32, i32, i32, i32, i32, [4 x i32], [5 x i32], [5 x i32], [4 x i8] }>
%class.scoped_ptr.38 = type { ptr }
%class.vector.39 = type { ptr }
%class.svector.14 = type { %class.vector.15 }
%class.vector.15 = type { ptr }
%class.svector.26 = type { %class.vector.27 }
%class.vector.27 = type { ptr }

@.str.5 = private unnamed_addr constant [106 x i8] c"generated/home/dtcxzyw/WorkSpace/Projects/compilers/llvm-opt-benchmark/bench/z3/z3/src/sat/sat_binspr.cpp\00", align 1
@.str.9 = private unnamed_addr constant [29 x i8] c"Failed to verify: touch(~p)\0A\00", align 1
@.str.10 = private unnamed_addr constant [29 x i8] c"Failed to verify: touch(~q)\0A\00", align 1

; Function Attrs: mustprogress nounwind uwtable
define linkonce_odr hidden noundef i32 @_Z8to_lboolb(i1 noundef zeroext %b) #4 comdat {
entry:
  %b.addr = alloca i8, align 1
  %frombool = zext i1 %b to i8
  store i8 %frombool, ptr %b.addr, align 1
  %0 = load i8, ptr %b.addr, align 1
  %tobool = trunc i8 %0 to i1
  %conv = zext i1 %tobool to i32
  %mul = mul nsw i32 %conv, 2
  %sub = sub nsw i32 %mul, 1
  ret i32 %sub
}

; Function Attrs: mustprogress nounwind uwtable
define linkonce_odr hidden noundef zeroext i1 @_ZNK3sat7literal4signEv(ptr noundef nonnull align 4 dereferenceable(4) %this) #4 comdat align 2 {
entry:
  %this.addr = alloca ptr, align 8
  store ptr %this, ptr %this.addr, align 8
  %this1 = load ptr, ptr %this.addr, align 8
  %m_val = getelementptr inbounds %"class.sat::literal", ptr %this1, i32 0, i32 0
  %0 = load i32, ptr %m_val, align 4
  %conv = zext i32 %0 to i64
  %and = and i64 %conv, 1
  %tobool = icmp ne i64 %and, 0
  ret i1 %tobool
}

; Function Attrs: mustprogress nounwind uwtable
define hidden void @_ZN3sat6binspr11add_touchedEv(ptr noundef nonnull align 8 dereferenceable(148) %this) #4 align 2 {
entry:
  %this.addr = alloca ptr, align 8
  %mask = alloca i32, align 4
  %i = alloca i32, align 4
  store ptr %this, ptr %this.addr, align 8
  %this1 = load ptr, ptr %this.addr, align 8
  store i32 0, ptr %mask, align 4
  store i32 0, ptr %i, align 4
  br label %for.cond

for.cond:                                         ; preds = %for.inc, %entry
  %0 = load i32, ptr %i, align 4
  %cmp = icmp ult i32 %0, 4
  br i1 %cmp, label %for.body, label %for.end

for.body:                                         ; preds = %for.cond
  %m_vals = getelementptr inbounds %"class.sat::binspr", ptr %this1, i32 0, i32 16
  %1 = load i32, ptr %i, align 4
  %idxprom = zext i32 %1 to i64
  %arrayidx = getelementptr inbounds [4 x i32], ptr %m_vals, i64 0, i64 %idxprom
  %2 = load i32, ptr %arrayidx, align 4
  switch i32 %2, label %sw.default [
    i32 1, label %sw.bb
    i32 -1, label %sw.bb4
  ]

sw.bb:                                            ; preds = %for.body
  %m_true = getelementptr inbounds %"class.sat::binspr", ptr %this1, i32 0, i32 17
  %3 = load i32, ptr %i, align 4
  %idxprom2 = zext i32 %3 to i64
  %arrayidx3 = getelementptr inbounds [5 x i32], ptr %m_true, i64 0, i64 %idxprom2
  %4 = load i32, ptr %arrayidx3, align 4
  %5 = load i32, ptr %mask, align 4
  %or = or i32 %5, %4
  store i32 %or, ptr %mask, align 4
  br label %sw.epilog

sw.bb4:                                           ; preds = %for.body
  %m_false = getelementptr inbounds %"class.sat::binspr", ptr %this1, i32 0, i32 18
  %6 = load i32, ptr %i, align 4
  %idxprom5 = zext i32 %6 to i64
  %arrayidx6 = getelementptr inbounds [5 x i32], ptr %m_false, i64 0, i64 %idxprom5
  %7 = load i32, ptr %arrayidx6, align 4
  %8 = load i32, ptr %mask, align 4
  %or7 = or i32 %8, %7
  store i32 %or7, ptr %mask, align 4
  br label %sw.epilog

sw.default:                                       ; preds = %for.body
  br label %sw.epilog

sw.epilog:                                        ; preds = %sw.default, %sw.bb4, %sw.bb
  br label %for.inc

for.inc:                                          ; preds = %sw.epilog
  %9 = load i32, ptr %i, align 4
  %inc = add i32 %9, 1
  store i32 %inc, ptr %i, align 4
  br label %for.cond, !llvm.loop !11

for.end:                                          ; preds = %for.cond
  %10 = load i32, ptr %mask, align 4
  %m_state = getelementptr inbounds %"class.sat::binspr", ptr %this1, i32 0, i32 11
  %11 = load i32, ptr %m_state, align 8
  %and = and i32 %11, %10
  store i32 %and, ptr %m_state, align 8
  ret void
}

; Function Attrs: mustprogress uwtable
define hidden noundef zeroext i1 @_ZN3sat6binspr5touchENS_7literalE(ptr noundef nonnull align 8 dereferenceable(148) %this, i32 %p.coerce) #5 align 2 {
entry:
  %retval = alloca i1, align 1
  %p = alloca %"class.sat::literal", align 4
  %this.addr = alloca ptr, align 8
  %v = alloca i32, align 4
  %coerce.dive = getelementptr inbounds %"class.sat::literal", ptr %p, i32 0, i32 0
  store i32 %p.coerce, ptr %coerce.dive, align 4
  store ptr %this, ptr %this.addr, align 8
  %this1 = load ptr, ptr %this.addr, align 8
  %call = call noundef i32 @_ZNK3sat7literal3varEv(ptr noundef nonnull align 4 dereferenceable(4) %p)
  store i32 %call, ptr %v, align 4
  %0 = load i32, ptr %v, align 4
  %m_p = getelementptr inbounds %"class.sat::binspr", ptr %this1, i32 0, i32 12
  %1 = load i32, ptr %m_p, align 4
  %cmp = icmp eq i32 %0, %1
  br i1 %cmp, label %if.then, label %if.else

if.then:                                          ; preds = %entry
  %call2 = call noundef zeroext i1 @_ZNK3sat7literal4signEv(ptr noundef nonnull align 4 dereferenceable(4) %p)
  %lnot = xor i1 %call2, true
  %call3 = call noundef i32 @_Z8to_lboolb(i1 noundef zeroext %lnot)
  %m_vals = getelementptr inbounds %"class.sat::binspr", ptr %this1, i32 0, i32 16
  %arrayidx = getelementptr inbounds [4 x i32], ptr %m_vals, i64 0, i64 0
  store i32 %call3, ptr %arrayidx, align 4
  br label %if.end30

if.else:                                          ; preds = %entry
  %2 = load i32, ptr %v, align 4
  %m_q = getelementptr inbounds %"class.sat::binspr", ptr %this1, i32 0, i32 13
  %3 = load i32, ptr %m_q, align 8
  %cmp4 = icmp eq i32 %2, %3
  br i1 %cmp4, label %if.then5, label %if.else11

if.then5:                                         ; preds = %if.else
  %call6 = call noundef zeroext i1 @_ZNK3sat7literal4signEv(ptr noundef nonnull align 4 dereferenceable(4) %p)
  %lnot7 = xor i1 %call6, true
  %call8 = call noundef i32 @_Z8to_lboolb(i1 noundef zeroext %lnot7)
  %m_vals9 = getelementptr inbounds %"class.sat::binspr", ptr %this1, i32 0, i32 16
  %arrayidx10 = getelementptr inbounds [4 x i32], ptr %m_vals9, i64 0, i64 1
  store i32 %call8, ptr %arrayidx10, align 4
  br label %if.end29

if.else11:                                        ; preds = %if.else
  %4 = load i32, ptr %v, align 4
  %m_u = getelementptr inbounds %"class.sat::binspr", ptr %this1, i32 0, i32 14
  %5 = load i32, ptr %m_u, align 4
  %cmp12 = icmp eq i32 %4, %5
  br i1 %cmp12, label %if.then13, label %if.else19

if.then13:                                        ; preds = %if.else11
  %call14 = call noundef zeroext i1 @_ZNK3sat7literal4signEv(ptr noundef nonnull align 4 dereferenceable(4) %p)
  %lnot15 = xor i1 %call14, true
  %call16 = call noundef i32 @_Z8to_lboolb(i1 noundef zeroext %lnot15)
  %m_vals17 = getelementptr inbounds %"class.sat::binspr", ptr %this1, i32 0, i32 16
  %arrayidx18 = getelementptr inbounds [4 x i32], ptr %m_vals17, i64 0, i64 2
  store i32 %call16, ptr %arrayidx18, align 4
  br label %if.end28

if.else19:                                        ; preds = %if.else11
  %6 = load i32, ptr %v, align 4
  %m_v = getelementptr inbounds %"class.sat::binspr", ptr %this1, i32 0, i32 15
  %7 = load i32, ptr %m_v, align 8
  %cmp20 = icmp eq i32 %6, %7
  br i1 %cmp20, label %if.then21, label %if.else27

if.then21:                                        ; preds = %if.else19
  %call22 = call noundef zeroext i1 @_ZNK3sat7literal4signEv(ptr noundef nonnull align 4 dereferenceable(4) %p)
  %lnot23 = xor i1 %call22, true
  %call24 = call noundef i32 @_Z8to_lboolb(i1 noundef zeroext %lnot23)
  %m_vals25 = getelementptr inbounds %"class.sat::binspr", ptr %this1, i32 0, i32 16
  %arrayidx26 = getelementptr inbounds [4 x i32], ptr %m_vals25, i64 0, i64 3
  store i32 %call24, ptr %arrayidx26, align 4
  br label %if.end

if.else27:                                        ; preds = %if.else19
  store i1 false, ptr %retval, align 1
  br label %return

if.end:                                           ; preds = %if.then21
  br label %if.end28

if.end28:                                         ; preds = %if.end, %if.then13
  br label %if.end29

if.end29:                                         ; preds = %if.end28, %if.then5
  br label %if.end30

if.end30:                                         ; preds = %if.end29, %if.then
  store i1 true, ptr %retval, align 1
  br label %return

return:                                           ; preds = %if.end30, %if.else27
  %8 = load i1, ptr %retval, align 1
  ret i1 %8
}

; Function Attrs: mustprogress nounwind uwtable
define linkonce_odr hidden i32 @_ZN3satcoENS_7literalE(i32 %l.coerce) #4 comdat {
entry:
  %retval = alloca %"class.sat::literal", align 4
  %l = alloca %"class.sat::literal", align 4
  %coerce.dive = getelementptr inbounds %"class.sat::literal", ptr %l, i32 0, i32 0
  store i32 %l.coerce, ptr %coerce.dive, align 4
  %m_val = getelementptr inbounds %"class.sat::literal", ptr %l, i32 0, i32 0
  %0 = load i32, ptr %m_val, align 4
  %xor = xor i32 %0, 1
  %m_val1 = getelementptr inbounds %"class.sat::literal", ptr %l, i32 0, i32 0
  store i32 %xor, ptr %m_val1, align 4
  call void @llvm.memcpy.p0.p0.i64(ptr align 4 %retval, ptr align 4 %l, i64 4, i1 false)
  %coerce.dive2 = getelementptr inbounds %"class.sat::literal", ptr %retval, i32 0, i32 0
  %1 = load i32, ptr %coerce.dive2, align 4
  ret i32 %1
}

; Function Attrs: mustprogress nounwind uwtable
define hidden void @_ZN3sat6binspr11clear_alphaEv(ptr noundef nonnull align 8 dereferenceable(148) %this) #4 align 2 {
entry:
  %this.addr = alloca ptr, align 8
  store ptr %this, ptr %this.addr, align 8
  %this1 = load ptr, ptr %this.addr, align 8
  %m_vals = getelementptr inbounds %"class.sat::binspr", ptr %this1, i32 0, i32 16
  %arrayidx = getelementptr inbounds [4 x i32], ptr %m_vals, i64 0, i64 3
  store i32 0, ptr %arrayidx, align 4
  %m_vals2 = getelementptr inbounds %"class.sat::binspr", ptr %this1, i32 0, i32 16
  %arrayidx3 = getelementptr inbounds [4 x i32], ptr %m_vals2, i64 0, i64 2
  store i32 0, ptr %arrayidx3, align 4
  %m_vals4 = getelementptr inbounds %"class.sat::binspr", ptr %this1, i32 0, i32 16
  %arrayidx5 = getelementptr inbounds [4 x i32], ptr %m_vals4, i64 0, i64 1
  store i32 0, ptr %arrayidx5, align 4
  %m_vals6 = getelementptr inbounds %"class.sat::binspr", ptr %this1, i32 0, i32 16
  %arrayidx7 = getelementptr inbounds [4 x i32], ptr %m_vals6, i64 0, i64 0
  store i32 0, ptr %arrayidx7, align 4
  ret void
}

; Function Attrs: mustprogress nounwind uwtable
define linkonce_odr hidden noundef i32 @_ZNK3sat7literal3varEv(ptr noundef nonnull align 4 dereferenceable(4) %this) #4 comdat align 2 {
entry:
  %this.addr = alloca ptr, align 8
  store ptr %this, ptr %this.addr, align 8
  %this1 = load ptr, ptr %this.addr, align 8
  %m_val = getelementptr inbounds %"class.sat::literal", ptr %this1, i32 0, i32 0
  %0 = load i32, ptr %m_val, align 4
  %shr = lshr i32 %0, 1
  ret i32 %shr
}

; Function Attrs: mustprogress uwtable
define hidden void @_ZN3sat6binspr6init_gENS_7literalES1_S1_S1_(ptr noundef nonnull align 8 dereferenceable(148) %this, i32 %p.coerce, i32 %q.coerce, i32 %u.coerce, i32 %v.coerce) #5 align 2 {
entry:
  %p = alloca %"class.sat::literal", align 4
  %q = alloca %"class.sat::literal", align 4
  %u = alloca %"class.sat::literal", align 4
  %v = alloca %"class.sat::literal", align 4
  %this.addr = alloca ptr, align 8
  %agg.tmp = alloca %"class.sat::literal", align 4
  %agg.tmp8 = alloca %"class.sat::literal", align 4
  %agg.tmp14 = alloca %"class.sat::literal", align 4
  %agg.tmp15 = alloca %"class.sat::literal", align 4
  %coerce.dive = getelementptr inbounds %"class.sat::literal", ptr %p, i32 0, i32 0
  store i32 %p.coerce, ptr %coerce.dive, align 4
  %coerce.dive1 = getelementptr inbounds %"class.sat::literal", ptr %q, i32 0, i32 0
  store i32 %q.coerce, ptr %coerce.dive1, align 4
  %coerce.dive2 = getelementptr inbounds %"class.sat::literal", ptr %u, i32 0, i32 0
  store i32 %u.coerce, ptr %coerce.dive2, align 4
  %coerce.dive3 = getelementptr inbounds %"class.sat::literal", ptr %v, i32 0, i32 0
  store i32 %v.coerce, ptr %coerce.dive3, align 4
  store ptr %this, ptr %this.addr, align 8
  %this4 = load ptr, ptr %this.addr, align 8
  %call = call noundef i32 @_ZNK3sat7literal3varEv(ptr noundef nonnull align 4 dereferenceable(4) %p)
  %m_p = getelementptr inbounds %"class.sat::binspr", ptr %this4, i32 0, i32 12
  store i32 %call, ptr %m_p, align 4
  %call5 = call noundef i32 @_ZNK3sat7literal3varEv(ptr noundef nonnull align 4 dereferenceable(4) %q)
  %m_q = getelementptr inbounds %"class.sat::binspr", ptr %this4, i32 0, i32 13
  store i32 %call5, ptr %m_q, align 8
  %call6 = call noundef i32 @_ZNK3sat7literal3varEv(ptr noundef nonnull align 4 dereferenceable(4) %u)
  %m_u = getelementptr inbounds %"class.sat::binspr", ptr %this4, i32 0, i32 14
  store i32 %call6, ptr %m_u, align 4
  %call7 = call noundef i32 @_ZNK3sat7literal3varEv(ptr noundef nonnull align 4 dereferenceable(4) %v)
  %m_v = getelementptr inbounds %"class.sat::binspr", ptr %this4, i32 0, i32 15
  store i32 %call7, ptr %m_v, align 8
  %m_state = getelementptr inbounds %"class.sat::binspr", ptr %this4, i32 0, i32 11
  store i32 -1, ptr %m_state, align 8
  call void @_ZN3sat6binspr11clear_alphaEv(ptr noundef nonnull align 8 dereferenceable(148) %this4)
  call void @llvm.memcpy.p0.p0.i64(ptr align 4 %agg.tmp8, ptr align 4 %p, i64 4, i1 false)
  %coerce.dive9 = getelementptr inbounds %"class.sat::literal", ptr %agg.tmp8, i32 0, i32 0
  %0 = load i32, ptr %coerce.dive9, align 4
  %call10 = call i32 @_ZN3satcoENS_7literalE(i32 %0)
  %coerce.dive11 = getelementptr inbounds %"class.sat::literal", ptr %agg.tmp, i32 0, i32 0
  store i32 %call10, ptr %coerce.dive11, align 4
  %coerce.dive12 = getelementptr inbounds %"class.sat::literal", ptr %agg.tmp, i32 0, i32 0
  %1 = load i32, ptr %coerce.dive12, align 4
  %call13 = call noundef zeroext i1 @_ZN3sat6binspr5touchENS_7literalE(ptr noundef nonnull align 8 dereferenceable(148) %this4, i32 %1)
  br i1 %call13, label %if.end, label %if.then

if.then:                                          ; preds = %entry
  call void @_Z26notify_assertion_violationPKciS0_(ptr noundef @.str.5, i32 noundef 454, ptr noundef @.str.9)
  call void @exit(i32 noundef 114) #14
  unreachable

if.end:                                           ; preds = %entry
  call void @llvm.memcpy.p0.p0.i64(ptr align 4 %agg.tmp15, ptr align 4 %q, i64 4, i1 false)
  %coerce.dive16 = getelementptr inbounds %"class.sat::literal", ptr %agg.tmp15, i32 0, i32 0
  %2 = load i32, ptr %coerce.dive16, align 4
  %call17 = call i32 @_ZN3satcoENS_7literalE(i32 %2)
  %coerce.dive18 = getelementptr inbounds %"class.sat::literal", ptr %agg.tmp14, i32 0, i32 0
  store i32 %call17, ptr %coerce.dive18, align 4
  %coerce.dive19 = getelementptr inbounds %"class.sat::literal", ptr %agg.tmp14, i32 0, i32 0
  %3 = load i32, ptr %coerce.dive19, align 4
  %call20 = call noundef zeroext i1 @_ZN3sat6binspr5touchENS_7literalE(ptr noundef nonnull align 8 dereferenceable(148) %this4, i32 %3)
  br i1 %call20, label %if.end22, label %if.then21

if.then21:                                        ; preds = %if.end
  call void @_Z26notify_assertion_violationPKciS0_(ptr noundef @.str.5, i32 noundef 455, ptr noundef @.str.10)
  call void @exit(i32 noundef 114) #14
  unreachable

if.end22:                                         ; preds = %if.end
  call void @_ZN3sat6binspr11add_touchedEv(ptr noundef nonnull align 8 dereferenceable(148) %this4)
  ret void
}