; Function Attrs: mustprogress nofree norecurse nosync nounwind memory(argmem: readwrite) uwtable
define hidden void @_ZN3sat6binspr6init_gENS_7literalES1_S1_S1_(ptr nocapture noundef nonnull align 8 dereferenceable(148) %this, i32 %p.coerce, i32 %q.coerce, i32 %u.coerce, i32 %v.coerce) local_unnamed_addr #8 align 2 {
if.end:
  %shr.i = lshr i32 %p.coerce, 1
  %m_p = getelementptr inbounds i8, ptr %this, i64 76
  store i32 %shr.i, ptr %m_p, align 4
  %shr.i1 = lshr i32 %q.coerce, 1
  %m_q = getelementptr inbounds i8, ptr %this, i64 80
  store i32 %shr.i1, ptr %m_q, align 8
  %shr.i2 = lshr i32 %u.coerce, 1
  %m_u = getelementptr inbounds i8, ptr %this, i64 84
  store i32 %shr.i2, ptr %m_u, align 4
  %shr.i3 = lshr i32 %v.coerce, 1
  %m_v = getelementptr inbounds i8, ptr %this, i64 88
  store i32 %shr.i3, ptr %m_v, align 8
  %m_state = getelementptr inbounds i8, ptr %this, i64 72
  store i32 -1, ptr %m_state, align 8
  %m_vals.i = getelementptr inbounds i8, ptr %this, i64 92
  %0 = getelementptr inbounds i8, ptr %this, i64 96
  tail call void @llvm.memset.p0.i64(ptr noundef nonnull align 8 dereferenceable(16) %0, i8 0, i64 12, i1 false)
  %xor.i = and i32 %p.coerce, 1
  %tobool.i.not.i.not = icmp eq i32 %xor.i, 0
  %sub.i.i = select i1 %tobool.i.not.i.not, i32 -1, i32 1
  store i32 %sub.i.i, ptr %m_vals.i, align 4
  %cmp.i8 = icmp eq i32 %shr.i1, %shr.i
  %spec.select = select i1 %cmp.i8, i64 92, i64 96
  %xor.i5 = and i32 %q.coerce, 1
  %tobool.i.not.i21.not = icmp eq i32 %xor.i5, 0
  %sub.i.i22 = select i1 %tobool.i.not.i21.not, i32 -1, i32 1
  %m_vals.i23 = getelementptr inbounds i8, ptr %this, i64 %spec.select
  store i32 %sub.i.i22, ptr %m_vals.i23, align 4
  br label %for.body.i

for.body.i:                                       ; preds = %for.inc.i, %if.end
  %indvars.iv.i = phi i64 [ 0, %if.end ], [ %indvars.iv.next.i, %for.inc.i ]
  %mask.07.i = phi i32 [ 0, %if.end ], [ %mask.1.i, %for.inc.i ]
  %arrayidx.i = getelementptr inbounds [4 x i32], ptr %m_vals.i, i64 0, i64 %indvars.iv.i
  %1 = load i32, ptr %arrayidx.i, align 4
  switch i32 %1, label %for.inc.i [
    i32 1, label %for.inc.sink.split.i
    i32 -1, label %sw.bb4.i
  ]

sw.bb4.i:                                         ; preds = %for.body.i
  br label %for.inc.sink.split.i

for.inc.sink.split.i:                             ; preds = %sw.bb4.i, %for.body.i
  %2 = phi i64 [ 128, %sw.bb4.i ], [ 108, %for.body.i ]
  %3 = getelementptr inbounds i8, ptr %this, i64 %2
  %arrayidx3.i = getelementptr inbounds [5 x i32], ptr %3, i64 0, i64 %indvars.iv.i
  %4 = load i32, ptr %arrayidx3.i, align 4
  %or.i = or i32 %4, %mask.07.i
  br label %for.inc.i

for.inc.i:                                        ; preds = %for.inc.sink.split.i, %for.body.i
  %mask.1.i = phi i32 [ %mask.07.i, %for.body.i ], [ %or.i, %for.inc.sink.split.i ]
  %indvars.iv.next.i = add nuw nsw i64 %indvars.iv.i, 1
  %exitcond.not.i = icmp eq i64 %indvars.iv.next.i, 4
  br i1 %exitcond.not.i, label %_ZN3sat6binspr11add_touchedEv.exit, label %for.body.i, !llvm.loop !12

_ZN3sat6binspr11add_touchedEv.exit:               ; preds = %for.inc.i
  %5 = load i32, ptr %m_state, align 8
  %and.i = and i32 %5, %mask.1.i
  store i32 %and.i, ptr %m_state, align 8
  ret void
}